target datalayout = "e-m:e-p270:32:32-p271:32:32-p272:64:64-i64:64-i128:128-f80:128-n8:16:32:64-S128"
target triple = "x86_64-pc-linux-gnu"

@.str = private unnamed_addr constant [33 x i8] c"unrecognized strategy number: %d\00", align 1
@.str.1 = private unnamed_addr constant [11 x i8] c"gistproc.c\00", align 1
@__func__.rtree_internal_consistent = private unnamed_addr constant [26 x i8] c"rtree_internal_consistent\00", align 1

; Function Attrs: inlinehint nounwind uwtable
define internal zeroext i1 @DatumGetBool(i64 noundef %0) #2 {
  %2 = alloca i64, align 8
  store i64 %0, ptr %2, align 8
  %3 = load i64, ptr %2, align 8
  %4 = icmp ne i64 %3, 0
  ret i1 %4
}

; Function Attrs: inlinehint nounwind uwtable
define internal i64 @PointerGetDatum(ptr noundef %0) #2 {
  %2 = alloca ptr, align 8
  store ptr %0, ptr %2, align 8
  %3 = load ptr, ptr %2, align 8
  %4 = ptrtoint ptr %3 to i64
  ret i64 %4
}

; Function Attrs: nounwind uwtable
define internal zeroext i1 @rtree_internal_consistent(ptr noundef %0, ptr noundef %1, i16 noundef zeroext %2) #0 {
  %4 = alloca ptr, align 8
  %5 = alloca ptr, align 8
  %6 = alloca i16, align 2
  %7 = alloca i8, align 1
  store ptr %0, ptr %4, align 8
  store ptr %1, ptr %5, align 8
  store i16 %2, ptr %6, align 2
  call void @llvm.lifetime.start.p0(i64 1, ptr %7) #10
  %8 = load i16, ptr %6, align 2
  %9 = zext i16 %8 to i32
  switch i32 %9, label %106 [
    i32 1, label %10
    i32 2, label %19
    i32 3, label %28
    i32 4, label %36
    i32 5, label %45
    i32 6, label %54
    i32 7, label %54
    i32 8, label %62
    i32 9, label %70
    i32 10, label %79
    i32 11, label %88
    i32 12, label %97
  ]

10:                                               ; preds = %3
  %11 = load ptr, ptr %4, align 8
  %12 = call i64 @PointerGetDatum(ptr noundef %11)
  %13 = load ptr, ptr %5, align 8
  %14 = call i64 @PointerGetDatum(ptr noundef %13)
  %15 = call i64 @DirectFunctionCall2Coll(ptr noundef @box_overright, i32 noundef 0, i64 noundef %12, i64 noundef %14)
  %16 = call zeroext i1 @DatumGetBool(i64 noundef %15)
  %17 = xor i1 %16, true
  %18 = zext i1 %17 to i8
  store i8 %18, ptr %7, align 1
  br label %119

19:                                               ; preds = %3
  %20 = load ptr, ptr %4, align 8
  %21 = call i64 @PointerGetDatum(ptr noundef %20)
  %22 = load ptr, ptr %5, align 8
  %23 = call i64 @PointerGetDatum(ptr noundef %22)
  %24 = call i64 @DirectFunctionCall2Coll(ptr noundef @box_right, i32 noundef 0, i64 noundef %21, i64 noundef %23)
  %25 = call zeroext i1 @DatumGetBool(i64 noundef %24)
  %26 = xor i1 %25, true
  %27 = zext i1 %26 to i8
  store i8 %27, ptr %7, align 1
  br label %119

28:                                               ; preds = %3
  %29 = load ptr, ptr %4, align 8
  %30 = call i64 @PointerGetDatum(ptr noundef %29)
  %31 = load ptr, ptr %5, align 8
  %32 = call i64 @PointerGetDatum(ptr noundef %31)
  %33 = call i64 @DirectFunctionCall2Coll(ptr noundef @box_overlap, i32 noundef 0, i64 noundef %30, i64 noundef %32)
  %34 = call zeroext i1 @DatumGetBool(i64 noundef %33)
  %35 = zext i1 %34 to i8
  store i8 %35, ptr %7, align 1
  br label %119

36:                                               ; preds = %3
  %37 = load ptr, ptr %4, align 8
  %38 = call i64 @PointerGetDatum(ptr noundef %37)
  %39 = load ptr, ptr %5, align 8
  %40 = call i64 @PointerGetDatum(ptr noundef %39)
  %41 = call i64 @DirectFunctionCall2Coll(ptr noundef @box_left, i32 noundef 0, i64 noundef %38, i64 noundef %40)
  %42 = call zeroext i1 @DatumGetBool(i64 noundef %41)
  %43 = xor i1 %42, true
  %44 = zext i1 %43 to i8
  store i8 %44, ptr %7, align 1
  br label %119

45:                                               ; preds = %3
  %46 = load ptr, ptr %4, align 8
  %47 = call i64 @PointerGetDatum(ptr noundef %46)
  %48 = load ptr, ptr %5, align 8
  %49 = call i64 @PointerGetDatum(ptr noundef %48)
  %50 = call i64 @DirectFunctionCall2Coll(ptr noundef @box_overleft, i32 noundef 0, i64 noundef %47, i64 noundef %49)
  %51 = call zeroext i1 @DatumGetBool(i64 noundef %50)
  %52 = xor i1 %51, true
  %53 = zext i1 %52 to i8
  store i8 %53, ptr %7, align 1
  br label %119

54:                                               ; preds = %3, %3
  %55 = load ptr, ptr %4, align 8
  %56 = call i64 @PointerGetDatum(ptr noundef %55)
  %57 = load ptr, ptr %5, align 8
  %58 = call i64 @PointerGetDatum(ptr noundef %57)
  %59 = call i64 @DirectFunctionCall2Coll(ptr noundef @box_contain, i32 noundef 0, i64 noundef %56, i64 noundef %58)
  %60 = call zeroext i1 @DatumGetBool(i64 noundef %59)
  %61 = zext i1 %60 to i8
  store i8 %61, ptr %7, align 1
  br label %119

62:                                               ; preds = %3
  %63 = load ptr, ptr %4, align 8
  %64 = call i64 @PointerGetDatum(ptr noundef %63)
  %65 = load ptr, ptr %5, align 8
  %66 = call i64 @PointerGetDatum(ptr noundef %65)
  %67 = call i64 @DirectFunctionCall2Coll(ptr noundef @box_overlap, i32 noundef 0, i64 noundef %64, i64 noundef %66)
  %68 = call zeroext i1 @DatumGetBool(i64 noundef %67)
  %69 = zext i1 %68 to i8
  store i8 %69, ptr %7, align 1
  br label %119

70:                                               ; preds = %3
  %71 = load ptr, ptr %4, align 8
  %72 = call i64 @PointerGetDatum(ptr noundef %71)
  %73 = load ptr, ptr %5, align 8
  %74 = call i64 @PointerGetDatum(ptr noundef %73)
  %75 = call i64 @DirectFunctionCall2Coll(ptr noundef @box_above, i32 noundef 0, i64 noundef %72, i64 noundef %74)
  %76 = call zeroext i1 @DatumGetBool(i64 noundef %75)
  %77 = xor i1 %76, true
  %78 = zext i1 %77 to i8
  store i8 %78, ptr %7, align 1
  br label %119

79:                                               ; preds = %3
  %80 = load ptr, ptr %4, align 8
  %81 = call i64 @PointerGetDatum(ptr noundef %80)
  %82 = load ptr, ptr %5, align 8
  %83 = call i64 @PointerGetDatum(ptr noundef %82)
  %84 = call i64 @DirectFunctionCall2Coll(ptr noundef @box_overabove, i32 noundef 0, i64 noundef %81, i64 noundef %83)
  %85 = call zeroext i1 @DatumGetBool(i64 noundef %84)
  %86 = xor i1 %85, true
  %87 = zext i1 %86 to i8
  store i8 %87, ptr %7, align 1
  br label %119

88:                                               ; preds = %3
  %89 = load ptr, ptr %4, align 8
  %90 = call i64 @PointerGetDatum(ptr noundef %89)
  %91 = load ptr, ptr %5, align 8
  %92 = call i64 @PointerGetDatum(ptr noundef %91)
  %93 = call i64 @DirectFunctionCall2Coll(ptr noundef @box_overbelow, i32 noundef 0, i64 noundef %90, i64 noundef %92)
  %94 = call zeroext i1 @DatumGetBool(i64 noundef %93)
  %95 = xor i1 %94, true
  %96 = zext i1 %95 to i8
  store i8 %96, ptr %7, align 1
  br label %119

97:                                               ; preds = %3
  %98 = load ptr, ptr %4, align 8
  %99 = call i64 @PointerGetDatum(ptr noundef %98)
  %100 = load ptr, ptr %5, align 8
  %101 = call i64 @PointerGetDatum(ptr noundef %100)
  %102 = call i64 @DirectFunctionCall2Coll(ptr noundef @box_below, i32 noundef 0, i64 noundef %99, i64 noundef %101)
  %103 = call zeroext i1 @DatumGetBool(i64 noundef %102)
  %104 = xor i1 %103, true
  %105 = zext i1 %104 to i8
  store i8 %105, ptr %7, align 1
  br label %119

106:                                              ; preds = %3
  br label %107

107:                                              ; preds = %106
  br i1 true, label %108, label %110

108:                                              ; preds = %107
  %109 = call zeroext i1 @errstart_cold(i32 noundef 21, ptr noundef null) #11
  br i1 %109, label %112, label %116

110:                                              ; preds = %107
  %111 = call zeroext i1 @errstart(i32 noundef 21, ptr noundef null)
  br i1 %111, label %112, label %116

112:                                              ; preds = %110, %108
  %113 = load i16, ptr %6, align 2
  %114 = zext i16 %113 to i32
  %115 = call i32 (ptr, ...) @errmsg_internal(ptr noundef @.str, i32 noundef %114)
  call void @errfinish(ptr noundef @.str.1, i32 noundef 1020, ptr noundef @__func__.rtree_internal_consistent)
  br label %116

116:                                              ; preds = %112, %110, %108
  unreachable

117:                                              ; No predecessors!
  br label %118

118:                                              ; preds = %117
  store i8 0, ptr %7, align 1
  br label %119

119:                                              ; preds = %118, %97, %88, %79, %70, %62, %54, %45, %36, %28, %19, %10
  %120 = load i8, ptr %7, align 1, !range !4, !noundef !5
  %121 = trunc i8 %120 to i1
  call void @llvm.lifetime.end.p0(i64 1, ptr %7) #10
  ret i1 %121
}