; Function Attrs: nounwind uwtable
define internal fastcc zeroext i1 @rtree_internal_consistent(ptr noundef %0, ptr noundef nonnull %1, i16 noundef zeroext %2) unnamed_addr #0 {
  switch i16 %2, label %51 [
    i16 1, label %4
    i16 2, label %8
    i16 3, label %12
    i16 4, label %17
    i16 5, label %21
    i16 6, label %25
    i16 7, label %25
    i16 8, label %30
    i16 9, label %35
    i16 10, label %39
    i16 11, label %43
    i16 12, label %47
  ]

4:                                                ; preds = %3
  %5 = ptrtoint ptr %0 to i64
  %6 = ptrtoint ptr %1 to i64
  %7 = tail call i64 @DirectFunctionCall2Coll(ptr noundef nonnull @box_overright, i32 noundef 0, i64 noundef %5, i64 noundef %6) #16
  %.not30 = icmp eq i64 %7, 0
  br label %55

8:                                                ; preds = %3
  %9 = ptrtoint ptr %0 to i64
  %10 = ptrtoint ptr %1 to i64
  %11 = tail call i64 @DirectFunctionCall2Coll(ptr noundef nonnull @box_right, i32 noundef 0, i64 noundef %9, i64 noundef %10) #16
  %.not29 = icmp eq i64 %11, 0
  br label %55

12:                                               ; preds = %3
  %13 = ptrtoint ptr %0 to i64
  %14 = ptrtoint ptr %1 to i64
  %15 = tail call i64 @DirectFunctionCall2Coll(ptr noundef nonnull @box_overlap, i32 noundef 0, i64 noundef %13, i64 noundef %14) #16
  %16 = icmp ne i64 %15, 0
  br label %55

17:                                               ; preds = %3
  %18 = ptrtoint ptr %0 to i64
  %19 = ptrtoint ptr %1 to i64
  %20 = tail call i64 @DirectFunctionCall2Coll(ptr noundef nonnull @box_left, i32 noundef 0, i64 noundef %18, i64 noundef %19) #16
  %.not28 = icmp eq i64 %20, 0
  br label %55

21:                                               ; preds = %3
  %22 = ptrtoint ptr %0 to i64
  %23 = ptrtoint ptr %1 to i64
  %24 = tail call i64 @DirectFunctionCall2Coll(ptr noundef nonnull @box_overleft, i32 noundef 0, i64 noundef %22, i64 noundef %23) #16
  %.not27 = icmp eq i64 %24, 0
  br label %55

25:                                               ; preds = %3, %3
  %26 = ptrtoint ptr %0 to i64
  %27 = ptrtoint ptr %1 to i64
  %28 = tail call i64 @DirectFunctionCall2Coll(ptr noundef nonnull @box_contain, i32 noundef 0, i64 noundef %26, i64 noundef %27) #16
  %29 = icmp ne i64 %28, 0
  br label %55

30:                                               ; preds = %3
  %31 = ptrtoint ptr %0 to i64
  %32 = ptrtoint ptr %1 to i64
  %33 = tail call i64 @DirectFunctionCall2Coll(ptr noundef nonnull @box_overlap, i32 noundef 0, i64 noundef %31, i64 noundef %32) #16
  %34 = icmp ne i64 %33, 0
  br label %55

35:                                               ; preds = %3
  %36 = ptrtoint ptr %0 to i64
  %37 = ptrtoint ptr %1 to i64
  %38 = tail call i64 @DirectFunctionCall2Coll(ptr noundef nonnull @box_above, i32 noundef 0, i64 noundef %36, i64 noundef %37) #16
  %.not26 = icmp eq i64 %38, 0
  br label %55

39:                                               ; preds = %3
  %40 = ptrtoint ptr %0 to i64
  %41 = ptrtoint ptr %1 to i64
  %42 = tail call i64 @DirectFunctionCall2Coll(ptr noundef nonnull @box_overabove, i32 noundef 0, i64 noundef %40, i64 noundef %41) #16
  %.not25 = icmp eq i64 %42, 0
  br label %55

43:                                               ; preds = %3
  %44 = ptrtoint ptr %0 to i64
  %45 = ptrtoint ptr %1 to i64
  %46 = tail call i64 @DirectFunctionCall2Coll(ptr noundef nonnull @box_overbelow, i32 noundef 0, i64 noundef %44, i64 noundef %45) #16
  %.not24 = icmp eq i64 %46, 0
  br label %55

47:                                               ; preds = %3
  %48 = ptrtoint ptr %0 to i64
  %49 = ptrtoint ptr %1 to i64
  %50 = tail call i64 @DirectFunctionCall2Coll(ptr noundef nonnull @box_below, i32 noundef 0, i64 noundef %48, i64 noundef %49) #16
  %.not = icmp eq i64 %50, 0
  br label %55

51:                                               ; preds = %3
  %52 = zext i16 %2 to i32
  %53 = tail call zeroext i1 @errstart_cold(i32 noundef 21, ptr noundef null) #15
  tail call void @llvm.assume(i1 %53)
  %54 = tail call i32 (ptr, ...) @errmsg_internal(ptr noundef nonnull @.str, i32 noundef %52) #16
  tail call void @errfinish(ptr noundef nonnull @.str.1, i32 noundef 1020, ptr noundef nonnull @__func__.rtree_internal_consistent) #16
  unreachable

55:                                               ; preds = %47, %43, %39, %35, %30, %25, %21, %17, %12, %8, %4
  %.0.in = phi i1 [ %.not, %47 ], [ %.not24, %43 ], [ %.not25, %39 ], [ %.not26, %35 ], [ %34, %30 ], [ %29, %25 ], [ %.not27, %21 ], [ %.not28, %17 ], [ %16, %12 ], [ %.not29, %8 ], [ %.not30, %4 ]
  ret i1 %.0.in
}